target datalayout = "e-m:e-p270:32:32-p271:32:32-p272:64:64-i64:64-i128:128-f80:128-n8:16:32:64-S128"
target triple = "x86_64-unknown-linux-gnu"

%"class.std::__shared_count" = type { ptr }
%"struct.v8::Isolate::CreateParams" = type { ptr, %"class.v8::ResourceConstraints", ptr, ptr, ptr, ptr, ptr, %"class.std::shared_ptr.340", ptr, i8, i8, i32, i32, ptr, ptr }
%"class.v8::ResourceConstraints" = type { i64, i64, i64, i64, i64, ptr }
%"class.std::shared_ptr.340" = type { %"class.std::__shared_ptr.341" }
%"class.std::__shared_ptr.341" = type { ptr, %"class.std::__shared_count" }

; Function Attrs: mustprogress nounwind uwtable
define linkonce_odr dso_local noundef i32 @_ZNSt14numeric_limitsIiE3maxEv() #4 comdat align 2 {
entry:
  ret i32 2147483647
}

; Function Attrs: mustprogress nounwind uwtable
define linkonce_odr dso_local noundef i64 @_ZNK2v819ResourceConstraints32max_old_generation_size_in_bytesEv(ptr noundef nonnull align 8 dereferenceable(48) %this) #4 comdat align 2 {
entry:
  %this.addr = alloca ptr, align 8
  store ptr %this, ptr %this.addr, align 8
  %this1 = load ptr, ptr %this.addr, align 8
  %max_old_generation_size_ = getelementptr inbounds %"class.v8::ResourceConstraints", ptr %this1, i32 0, i32 1
  %0 = load i64, ptr %max_old_generation_size_, align 8
  ret i64 %0
}

; Function Attrs: mustprogress nounwind uwtable
define linkonce_odr dso_local noundef nonnull align 8 dereferenceable(8) ptr @_ZSt3minImERKT_S2_S2_(ptr noundef nonnull align 8 dereferenceable(8) %__a, ptr noundef nonnull align 8 dereferenceable(8) %__b) #4 comdat {
entry:
  %retval = alloca ptr, align 8
  %__a.addr = alloca ptr, align 8
  %__b.addr = alloca ptr, align 8
  store ptr %__a, ptr %__a.addr, align 8
  store ptr %__b, ptr %__b.addr, align 8
  %0 = load ptr, ptr %__b.addr, align 8
  %1 = load i64, ptr %0, align 8
  %2 = load ptr, ptr %__a.addr, align 8
  %3 = load i64, ptr %2, align 8
  %cmp = icmp ult i64 %1, %3
  br i1 %cmp, label %if.then, label %if.end

if.then:                                          ; preds = %entry
  %4 = load ptr, ptr %__b.addr, align 8
  store ptr %4, ptr %retval, align 8
  br label %return

if.end:                                           ; preds = %entry
  %5 = load ptr, ptr %__a.addr, align 8
  store ptr %5, ptr %retval, align 8
  br label %return

return:                                           ; preds = %if.end, %if.then
  %6 = load ptr, ptr %retval, align 8
  ret ptr %6
}

; Function Attrs: mustprogress nounwind uwtable
define dso_local void @_ZN4node29SetIsolateCreateParamsForNodeEPN2v87Isolate12CreateParamsE(ptr noundef %params) #4 {
entry:
  %params.addr = alloca ptr, align 8
  %constrained_memory = alloca i64, align 8
  %total_memory = alloca i64, align 8
  %ref.tmp = alloca i64, align 8
  store ptr %params, ptr %params.addr, align 8
  %call = call i64 @uv_get_constrained_memory()
  store i64 %call, ptr %constrained_memory, align 8
  %0 = load i64, ptr %constrained_memory, align 8
  %cmp = icmp ugt i64 %0, 0
  br i1 %cmp, label %cond.true, label %cond.false

cond.true:                                        ; preds = %entry
  %call1 = call i64 @uv_get_total_memory()
  store i64 %call1, ptr %ref.tmp, align 8
  %call2 = call noundef nonnull align 8 dereferenceable(8) ptr @_ZSt3minImERKT_S2_S2_(ptr noundef nonnull align 8 dereferenceable(8) %ref.tmp, ptr noundef nonnull align 8 dereferenceable(8) %constrained_memory)
  %1 = load i64, ptr %call2, align 8
  br label %cond.end

cond.false:                                       ; preds = %entry
  %call3 = call i64 @uv_get_total_memory()
  br label %cond.end

cond.end:                                         ; preds = %cond.false, %cond.true
  %cond = phi i64 [ %1, %cond.true ], [ %call3, %cond.false ]
  store i64 %cond, ptr %total_memory, align 8
  %2 = load i64, ptr %total_memory, align 8
  %cmp4 = icmp ugt i64 %2, 0
  br i1 %cmp4, label %land.lhs.true, label %if.end

land.lhs.true:                                    ; preds = %cond.end
  %3 = load ptr, ptr %params.addr, align 8
  %constraints = getelementptr inbounds %"struct.v8::Isolate::CreateParams", ptr %3, i32 0, i32 1
  %call5 = call noundef i64 @_ZNK2v819ResourceConstraints32max_old_generation_size_in_bytesEv(ptr noundef nonnull align 8 dereferenceable(48) %constraints)
  %cmp6 = icmp eq i64 %call5, 0
  br i1 %cmp6, label %if.then, label %if.end

if.then:                                          ; preds = %land.lhs.true
  %4 = load ptr, ptr %params.addr, align 8
  %constraints7 = getelementptr inbounds %"struct.v8::Isolate::CreateParams", ptr %4, i32 0, i32 1
  %5 = load i64, ptr %total_memory, align 8
  call void @_ZN2v819ResourceConstraints17ConfigureDefaultsEmm(ptr noundef nonnull align 8 dereferenceable(48) %constraints7, i64 noundef %5, i64 noundef 0)
  br label %if.end

if.end:                                           ; preds = %if.then, %land.lhs.true, %cond.end
  %6 = load ptr, ptr %params.addr, align 8
  %embedder_wrapper_object_index = getelementptr inbounds %"struct.v8::Isolate::CreateParams", ptr %6, i32 0, i32 12
  store i32 1, ptr %embedder_wrapper_object_index, align 8
  %call8 = call noundef i32 @_ZNSt14numeric_limitsIiE3maxEv() #3
  %7 = load ptr, ptr %params.addr, align 8
  %embedder_wrapper_type_index = getelementptr inbounds %"struct.v8::Isolate::CreateParams", ptr %7, i32 0, i32 11
  store i32 %call8, ptr %embedder_wrapper_type_index, align 4
  ret void
}