; Function Attrs: mustprogress nounwind uwtable
define dso_local void @_ZN4node29SetIsolateCreateParamsForNodeEPN2v87Isolate12CreateParamsE(ptr noundef %params) local_unnamed_addr #3 {
entry:
  %call = tail call i64 @uv_get_constrained_memory() #12
  %cmp.not = icmp ne i64 %call, 0
  %call3 = tail call i64 @uv_get_total_memory() #12
  %cmp.i = icmp ult i64 %call, %call3
  %or.cond = select i1 %cmp.not, i1 %cmp.i, i1 false
  br i1 %or.cond, label %land.lhs.true, label %cond.end

cond.end:                                         ; preds = %entry
  %cmp4.not = icmp eq i64 %call3, 0
  br i1 %cmp4.not, label %if.end, label %land.lhs.true

land.lhs.true:                                    ; preds = %entry, %cond.end
  %cond9 = phi i64 [ %call3, %cond.end ], [ %call, %entry ]
  %max_old_generation_size_.i = getelementptr inbounds i8, ptr %params, i64 16
  %0 = load i64, ptr %max_old_generation_size_.i, align 8
  %cmp6 = icmp eq i64 %0, 0
  br i1 %cmp6, label %if.then, label %if.end

if.then:                                          ; preds = %land.lhs.true
  %constraints = getelementptr inbounds i8, ptr %params, i64 8
  tail call void @_ZN2v819ResourceConstraints17ConfigureDefaultsEmm(ptr noundef nonnull align 8 dereferenceable(48) %constraints, i64 noundef %cond9, i64 noundef 0) #12
  br label %if.end

if.end:                                           ; preds = %if.then, %land.lhs.true, %cond.end
  %embedder_wrapper_object_index = getelementptr inbounds i8, ptr %params, i64 128
  store i32 1, ptr %embedder_wrapper_object_index, align 8
  %embedder_wrapper_type_index = getelementptr inbounds i8, ptr %params, i64 124
  store i32 2147483647, ptr %embedder_wrapper_type_index, align 4
  ret void
}